target datalayout = "e-m:e-p270:32:32-p271:32:32-p272:64:64-i64:64-i128:128-f80:128-n8:16:32:64-S128"
target triple = "x86_64-pc-linux-gnu"

%struct.uv_pipe_s = type { ptr, ptr, i32, ptr, %struct.uv__queue, %union.anon, ptr, i32, i64, ptr, ptr, ptr, ptr, %struct.uv__io_s, %struct.uv__queue, %struct.uv__queue, ptr, i32, i32, ptr, i32, ptr }
%union.anon = type { [4 x ptr] }
%struct.uv__io_s = type { ptr, %struct.uv__queue, %struct.uv__queue, i32, i32, i32 }
%struct.uv__queue = type { ptr, ptr }
%struct.sockaddr_un = type { i16, [108 x i8] }
%union.__CONST_SOCKADDR_ARG = type { ptr }

; Function Attrs: nounwind uwtable
define internal i32 @includes_nul(ptr noundef %0, i64 noundef %1) #0 {
  %3 = alloca i32, align 4
  %4 = alloca ptr, align 8
  %5 = alloca i64, align 8
  store ptr %0, ptr %4, align 8
  store i64 %1, ptr %5, align 8
  %6 = load i64, ptr %5, align 8
  %7 = icmp eq i64 %6, 0
  br i1 %7, label %8, label %9

8:                                                ; preds = %2
  store i32 0, ptr %3, align 4
  br label %19

9:                                                ; preds = %2
  %10 = load ptr, ptr %4, align 8
  %11 = getelementptr inbounds nuw i8, ptr %10, i32 1
  store ptr %11, ptr %4, align 8
  %12 = load i64, ptr %5, align 8
  %13 = add i64 %12, -1
  store i64 %13, ptr %5, align 8
  %14 = load ptr, ptr %4, align 8
  %15 = load i64, ptr %5, align 8
  %16 = call ptr @memchr(ptr noundef %14, i32 noundef 0, i64 noundef %15) #9
  %17 = icmp ne ptr null, %16
  %18 = zext i1 %17 to i32
  store i32 %18, ptr %3, align 4
  br label %19

19:                                               ; preds = %9, %8
  %20 = load i32, ptr %3, align 4
  ret i32 %20
}

; Function Attrs: nounwind uwtable
define dso_local i32 @uv_pipe_bind2(ptr noundef %0, ptr noundef %1, i64 noundef %2, i32 noundef %3) #0 {
  %5 = alloca i32, align 4
  %6 = alloca ptr, align 8
  %7 = alloca ptr, align 8
  %8 = alloca i64, align 8
  %9 = alloca i32, align 4
  %10 = alloca %struct.sockaddr_un, align 2
  %11 = alloca ptr, align 8
  %12 = alloca i32, align 4
  %13 = alloca i32, align 4
  %14 = alloca i32, align 4
  %15 = alloca i32, align 4
  %16 = alloca %union.__CONST_SOCKADDR_ARG, align 8
  store ptr %0, ptr %6, align 8
  store ptr %1, ptr %7, align 8
  store i64 %2, ptr %8, align 8
  store i32 %3, ptr %9, align 4
  call void @llvm.lifetime.start.p0(i64 110, ptr %10) #10
  call void @llvm.lifetime.start.p0(i64 8, ptr %11) #10
  call void @llvm.lifetime.start.p0(i64 4, ptr %12) #10
  call void @llvm.lifetime.start.p0(i64 4, ptr %13) #10
  call void @llvm.lifetime.start.p0(i64 4, ptr %14) #10
  store ptr null, ptr %11, align 8
  %17 = load i32, ptr %9, align 4
  %18 = and i32 %17, -2
  %19 = icmp ne i32 %18, 0
  br i1 %19, label %20, label %21

20:                                               ; preds = %4
  store i32 -22, ptr %5, align 4
  store i32 1, ptr %15, align 4
  br label %123

21:                                               ; preds = %4
  %22 = load ptr, ptr %7, align 8
  %23 = icmp eq ptr %22, null
  br i1 %23, label %24, label %25

24:                                               ; preds = %21
  store i32 -22, ptr %5, align 4
  store i32 1, ptr %15, align 4
  br label %123

25:                                               ; preds = %21
  %26 = load ptr, ptr %7, align 8
  %27 = load i64, ptr %8, align 8
  %28 = call i32 @includes_nul(ptr noundef %26, i64 noundef %27)
  %29 = icmp ne i32 %28, 0
  br i1 %29, label %30, label %31

30:                                               ; preds = %25
  store i32 -22, ptr %5, align 4
  store i32 1, ptr %15, align 4
  br label %123

31:                                               ; preds = %25
  %32 = load i32, ptr %9, align 4
  %33 = and i32 %32, 1
  %34 = icmp ne i32 %33, 0
  br i1 %34, label %35, label %40

35:                                               ; preds = %31
  %36 = load i64, ptr %8, align 8
  %37 = icmp ugt i64 %36, 108
  br i1 %37, label %38, label %39

38:                                               ; preds = %35
  store i32 -22, ptr %5, align 4
  store i32 1, ptr %15, align 4
  br label %123

39:                                               ; preds = %35
  br label %40

40:                                               ; preds = %39, %31
  %41 = load i64, ptr %8, align 8
  %42 = icmp ugt i64 %41, 108
  br i1 %42, label %43, label %44

43:                                               ; preds = %40
  store i64 108, ptr %8, align 8
  br label %44

44:                                               ; preds = %43, %40
  %45 = load ptr, ptr %6, align 8
  %46 = getelementptr inbounds nuw %struct.uv_pipe_s, ptr %45, i32 0, i32 13
  %47 = getelementptr inbounds nuw %struct.uv__io_s, ptr %46, i32 0, i32 5
  %48 = load i32, ptr %47, align 8
  %49 = icmp sge i32 %48, 0
  br i1 %49, label %50, label %51

50:                                               ; preds = %44
  store i32 -22, ptr %5, align 4
  store i32 1, ptr %15, align 4
  br label %123

51:                                               ; preds = %44
  %52 = load ptr, ptr %6, align 8
  %53 = getelementptr inbounds nuw %struct.uv_pipe_s, ptr %52, i32 0, i32 7
  %54 = load i32, ptr %53, align 8
  %55 = and i32 %54, 3
  %56 = icmp ne i32 %55, 0
  br i1 %56, label %57, label %58

57:                                               ; preds = %51
  store i32 -22, ptr %5, align 4
  store i32 1, ptr %15, align 4
  br label %123

58:                                               ; preds = %51
  %59 = load ptr, ptr %7, align 8
  %60 = load i8, ptr %59, align 1
  %61 = sext i8 %60 to i32
  %62 = icmp eq i32 %61, 0
  br i1 %62, label %63, label %67

63:                                               ; preds = %58
  %64 = load i64, ptr %8, align 8
  %65 = add i64 2, %64
  %66 = trunc i64 %65 to i32
  store i32 %66, ptr %14, align 4
  br label %81

67:                                               ; preds = %58
  %68 = load i64, ptr %8, align 8
  %69 = add i64 %68, 1
  %70 = call ptr @uv__malloc(i64 noundef %69)
  store ptr %70, ptr %11, align 8
  %71 = load ptr, ptr %11, align 8
  %72 = icmp eq ptr %71, null
  br i1 %72, label %73, label %74

73:                                               ; preds = %67
  store i32 -12, ptr %5, align 4
  store i32 1, ptr %15, align 4
  br label %123

74:                                               ; preds = %67
  %75 = load ptr, ptr %11, align 8
  %76 = load ptr, ptr %7, align 8
  %77 = load i64, ptr %8, align 8
  call void @llvm.memcpy.p0.p0.i64(ptr align 1 %75, ptr align 1 %76, i64 %77, i1 false)
  %78 = load ptr, ptr %11, align 8
  %79 = load i64, ptr %8, align 8
  %80 = getelementptr inbounds nuw i8, ptr %78, i64 %79
  store i8 0, ptr %80, align 1
  store i32 110, ptr %14, align 4
  br label %81

81:                                               ; preds = %74, %63
  %82 = call i32 @uv__socket(i32 noundef 1, i32 noundef 1, i32 noundef 0)
  store i32 %82, ptr %13, align 4
  %83 = load i32, ptr %13, align 4
  %84 = icmp slt i32 %83, 0
  br i1 %84, label %85, label %86

85:                                               ; preds = %81
  br label %120

86:                                               ; preds = %81
  %87 = load i32, ptr %13, align 4
  store i32 %87, ptr %12, align 4
  call void @llvm.memset.p0.i64(ptr align 2 %10, i8 0, i64 110, i1 false)
  %88 = getelementptr inbounds nuw %struct.sockaddr_un, ptr %10, i32 0, i32 1
  %89 = load ptr, ptr %7, align 8
  %90 = load i64, ptr %8, align 8
  call void @llvm.memcpy.p0.p0.i64(ptr align 2 %88, ptr align 1 %89, i64 %90, i1 false)
  %91 = getelementptr inbounds nuw %struct.sockaddr_un, ptr %10, i32 0, i32 0
  store i16 1, ptr %91, align 2
  %92 = load i32, ptr %12, align 4
  store ptr %10, ptr %16, align 8
  %93 = load i32, ptr %14, align 4
  %94 = getelementptr inbounds nuw %union.__CONST_SOCKADDR_ARG, ptr %16, i32 0, i32 0
  %95 = load ptr, ptr %94, align 8
  %96 = call i32 @bind(i32 noundef %92, ptr %95, i32 noundef %93) #10
  %97 = icmp ne i32 %96, 0
  br i1 %97, label %98, label %108

98:                                               ; preds = %86
  %99 = call ptr @__errno_location() #11
  %100 = load i32, ptr %99, align 4
  %101 = sub nsw i32 0, %100
  store i32 %101, ptr %13, align 4
  %102 = load i32, ptr %13, align 4
  %103 = icmp eq i32 %102, -2
  br i1 %103, label %104, label %105

104:                                              ; preds = %98
  store i32 -13, ptr %13, align 4
  br label %105

105:                                              ; preds = %104, %98
  %106 = load i32, ptr %12, align 4
  %107 = call i32 @uv__close(i32 noundef %106)
  br label %120

108:                                              ; preds = %86
  %109 = load ptr, ptr %6, align 8
  %110 = getelementptr inbounds nuw %struct.uv_pipe_s, ptr %109, i32 0, i32 7
  %111 = load i32, ptr %110, align 8
  %112 = or i32 %111, 8192
  store i32 %112, ptr %110, align 8
  %113 = load ptr, ptr %11, align 8
  %114 = load ptr, ptr %6, align 8
  %115 = getelementptr inbounds nuw %struct.uv_pipe_s, ptr %114, i32 0, i32 21
  store ptr %113, ptr %115, align 8
  %116 = load i32, ptr %12, align 4
  %117 = load ptr, ptr %6, align 8
  %118 = getelementptr inbounds nuw %struct.uv_pipe_s, ptr %117, i32 0, i32 13
  %119 = getelementptr inbounds nuw %struct.uv__io_s, ptr %118, i32 0, i32 5
  store i32 %116, ptr %119, align 8
  store i32 0, ptr %5, align 4
  store i32 1, ptr %15, align 4
  br label %123

120:                                              ; preds = %105, %85
  %121 = load ptr, ptr %11, align 8
  call void @uv__free(ptr noundef %121)
  %122 = load i32, ptr %13, align 4
  store i32 %122, ptr %5, align 4
  store i32 1, ptr %15, align 4
  br label %123

123:                                              ; preds = %120, %108, %73, %57, %50, %38, %30, %24, %20
  call void @llvm.lifetime.end.p0(i64 4, ptr %14) #10
  call void @llvm.lifetime.end.p0(i64 4, ptr %13) #10
  call void @llvm.lifetime.end.p0(i64 4, ptr %12) #10
  call void @llvm.lifetime.end.p0(i64 8, ptr %11) #10
  call void @llvm.lifetime.end.p0(i64 110, ptr %10) #10
  %124 = load i32, ptr %5, align 4
  ret i32 %124
}