; Function Attrs: nounwind uwtable
define dso_local i32 @uv_pipe_bind2(ptr noundef captures(none) %0, ptr noundef readonly %1, i64 noundef %2, i32 noundef %3) local_unnamed_addr #0 {
  %5 = alloca %struct.sockaddr_un, align 2
  call void @llvm.lifetime.start.p0(i64 110, ptr nonnull %5) #12
  %.not = icmp ugt i32 %3, 1
  %6 = icmp eq ptr %1, null
  %or.cond44 = or i1 %6, %.not
  br i1 %or.cond44, label %52, label %7

7:                                                ; preds = %4
  %8 = icmp eq i64 %2, 0
  br i1 %8, label %.thread, label %includes_nul.exit

includes_nul.exit:                                ; preds = %7
  %9 = getelementptr inbounds nuw i8, ptr %1, i64 1
  %10 = add i64 %2, -1
  %11 = tail call ptr @memchr(ptr noundef nonnull readonly %9, i32 noundef 0, i64 noundef %10) #13
  %.not48 = icmp eq ptr %11, null
  br i1 %.not48, label %12, label %52

12:                                               ; preds = %includes_nul.exit
  %13 = icmp ne i32 %3, 0
  %14 = icmp ugt i64 %2, 108
  %or.cond = and i1 %14, %13
  br i1 %or.cond, label %52, label %.thread

.thread:                                          ; preds = %7, %12
  %spec.store.select = tail call i64 @llvm.umin.i64(i64 %2, i64 108)
  %15 = getelementptr inbounds nuw i8, ptr %0, i64 184
  %16 = load i32, ptr %15, align 8
  %17 = icmp sgt i32 %16, -1
  br i1 %17, label %52, label %18

18:                                               ; preds = %.thread
  %19 = getelementptr inbounds nuw i8, ptr %0, i64 88
  %20 = load i32, ptr %19, align 8
  %21 = and i32 %20, 3
  %.not42 = icmp eq i32 %21, 0
  br i1 %.not42, label %22, label %52

22:                                               ; preds = %18
  %23 = load i8, ptr %1, align 1
  %24 = icmp eq i8 %23, 0
  br i1 %24, label %25, label %28

25:                                               ; preds = %22
  %26 = trunc nuw nsw i64 %spec.store.select to i32
  %27 = add nuw nsw i32 %26, 2
  br label %34

28:                                               ; preds = %22
  %29 = add nuw nsw i64 %spec.store.select, 1
  %30 = tail call ptr @uv__malloc(i64 noundef %29) #12
  %31 = icmp eq ptr %30, null
  br i1 %31, label %52, label %32

32:                                               ; preds = %28
  tail call void @llvm.memcpy.p0.p0.i64(ptr nonnull align 1 %30, ptr nonnull align 1 %1, i64 %spec.store.select, i1 false)
  %33 = getelementptr inbounds nuw i8, ptr %30, i64 %spec.store.select
  store i8 0, ptr %33, align 1
  br label %34

34:                                               ; preds = %32, %25
  %.037 = phi ptr [ null, %25 ], [ %30, %32 ]
  %.035 = phi i32 [ %27, %25 ], [ 110, %32 ]
  %35 = tail call i32 @uv__socket(i32 noundef 1, i32 noundef 1, i32 noundef 0) #12
  %36 = icmp slt i32 %35, 0
  br i1 %36, label %51, label %37

37:                                               ; preds = %34
  %38 = getelementptr inbounds nuw i8, ptr %5, i64 2
  call void @llvm.memset.p0.i64(ptr noundef nonnull align 2 dereferenceable(110) %38, i8 0, i64 108, i1 false)
  %39 = getelementptr inbounds nuw i8, ptr %5, i64 2
  call void @llvm.memcpy.p0.p0.i64(ptr nonnull align 2 %39, ptr nonnull align 1 %1, i64 %spec.store.select, i1 false)
  store i16 1, ptr %5, align 2
  %40 = call i32 @bind(i32 noundef %35, ptr nonnull %5, i32 noundef %.035) #12
  %.not43 = icmp eq i32 %40, 0
  br i1 %.not43, label %47, label %41

41:                                               ; preds = %37
  %42 = tail call ptr @__errno_location() #14
  %43 = load i32, ptr %42, align 4
  %44 = sub nsw i32 0, %43
  %45 = icmp eq i32 %43, 2
  %spec.store.select1 = select i1 %45, i32 -13, i32 %44
  %46 = call i32 @uv__close(i32 noundef %35) #12
  br label %51

47:                                               ; preds = %37
  %48 = load i32, ptr %19, align 8
  %49 = or i32 %48, 8192
  store i32 %49, ptr %19, align 8
  %50 = getelementptr inbounds nuw i8, ptr %0, i64 256
  store ptr %.037, ptr %50, align 8
  store i32 %35, ptr %15, align 8
  br label %52

51:                                               ; preds = %34, %41
  %.036 = phi i32 [ %35, %34 ], [ %spec.store.select1, %41 ]
  call void @uv__free(ptr noundef %.037) #12
  br label %52

52:                                               ; preds = %28, %18, %.thread, %12, %includes_nul.exit, %4, %51, %47
  %.0 = phi i32 [ %.036, %51 ], [ 0, %47 ], [ -22, %4 ], [ -22, %includes_nul.exit ], [ -22, %12 ], [ -22, %.thread ], [ -22, %18 ], [ -12, %28 ]
  call void @llvm.lifetime.end.p0(i64 110, ptr nonnull %5) #12
  ret i32 %.0
}